target datalayout = "e-m:e-p270:32:32-p271:32:32-p272:64:64-i64:64-i128:128-f80:128-n8:16:32:64-S128"
target triple = "x86_64-pc-linux-gnu"

%class.Register = type { i32 }

@UseTLAB = external global i8, align 1
@_ZL5noreg = internal constant %class.Register { i32 -1 }, align 4

; Function Attrs: mustprogress nounwind uwtable
define hidden void @_ZN17C1_MacroAssembler12try_allocateE8RegisterS0_iS0_S0_R5Label(ptr noundef nonnull align 8 dereferenceable(44) %0, i32 %1, i32 %2, i32 noundef %3, i32 %4, i32 %5, ptr noundef nonnull align 8 dereferenceable(33) %6) #1 align 2 {
  %8 = alloca %class.Register, align 4
  %9 = alloca %class.Register, align 4
  %10 = alloca %class.Register, align 4
  %11 = alloca %class.Register, align 4
  %12 = alloca ptr, align 8
  %13 = alloca i32, align 4
  %14 = alloca ptr, align 8
  %15 = alloca %class.Register, align 4
  %16 = alloca %class.Register, align 4
  %17 = alloca %class.Register, align 4
  %18 = alloca %class.Register, align 4
  %19 = alloca %class.Register, align 4
  %20 = getelementptr inbounds %class.Register, ptr %8, i32 0, i32 0
  store i32 %1, ptr %20, align 4
  %21 = getelementptr inbounds %class.Register, ptr %9, i32 0, i32 0
  store i32 %2, ptr %21, align 4
  %22 = getelementptr inbounds %class.Register, ptr %10, i32 0, i32 0
  store i32 %4, ptr %22, align 4
  %23 = getelementptr inbounds %class.Register, ptr %11, i32 0, i32 0
  store i32 %5, ptr %23, align 4
  store ptr %0, ptr %12, align 8
  store i32 %3, ptr %13, align 4
  store ptr %6, ptr %14, align 8
  %24 = load ptr, ptr %12, align 8
  %25 = load i8, ptr @UseTLAB, align 1
  %26 = trunc i8 %25 to i1
  br i1 %26, label %27, label %40

27:                                               ; preds = %7
  call void @llvm.memcpy.p0.p0.i64(ptr align 4 %15, ptr align 4 @_ZL5noreg, i64 4, i1 false)
  call void @llvm.memcpy.p0.p0.i64(ptr align 4 %16, ptr align 4 %8, i64 4, i1 false)
  call void @llvm.memcpy.p0.p0.i64(ptr align 4 %17, ptr align 4 %9, i64 4, i1 false)
  %28 = load i32, ptr %13, align 4
  call void @llvm.memcpy.p0.p0.i64(ptr align 4 %18, ptr align 4 %10, i64 4, i1 false)
  call void @llvm.memcpy.p0.p0.i64(ptr align 4 %19, ptr align 4 %11, i64 4, i1 false)
  %29 = load ptr, ptr %14, align 8
  %30 = getelementptr inbounds %class.Register, ptr %15, i32 0, i32 0
  %31 = load i32, ptr %30, align 4
  %32 = getelementptr inbounds %class.Register, ptr %16, i32 0, i32 0
  %33 = load i32, ptr %32, align 4
  %34 = getelementptr inbounds %class.Register, ptr %17, i32 0, i32 0
  %35 = load i32, ptr %34, align 4
  %36 = getelementptr inbounds %class.Register, ptr %18, i32 0, i32 0
  %37 = load i32, ptr %36, align 4
  %38 = getelementptr inbounds %class.Register, ptr %19, i32 0, i32 0
  %39 = load i32, ptr %38, align 4
  call void @_ZN14MacroAssembler13tlab_allocateE8RegisterS0_S0_iS0_S0_R5Label(ptr noundef nonnull align 8 dereferenceable(40) %24, i32 %31, i32 %33, i32 %35, i32 noundef %28, i32 %37, i32 %39, ptr noundef nonnull align 8 dereferenceable(33) %29)
  br label %42

40:                                               ; preds = %7
  %41 = load ptr, ptr %14, align 8
  call void @_ZN9Assembler3jmpER5Labelb(ptr noundef nonnull align 8 dereferenceable(40) %24, ptr noundef nonnull align 8 dereferenceable(33) %41, i1 noundef zeroext true)
  br label %42

42:                                               ; preds = %40, %27
  ret void
}