; Function Attrs: mustprogress nounwind uwtable
define hidden void @_ZN17C1_MacroAssembler12try_allocateE8RegisterS0_iS0_S0_R5Label(ptr noundef nonnull align 8 dereferenceable(44) %0, i32 %1, i32 %2, i32 noundef %3, i32 %4, i32 %5, ptr noundef nonnull align 8 dereferenceable(33) %6) local_unnamed_addr #0 align 2 {
  %8 = load i8, ptr @UseTLAB, align 1
  %9 = trunc i8 %8 to i1
  br i1 %9, label %10, label %11

10:                                               ; preds = %7
  tail call void @_ZN14MacroAssembler13tlab_allocateE8RegisterS0_S0_iS0_S0_R5Label(ptr noundef nonnull align 8 dereferenceable(40) %0, i32 -1, i32 %1, i32 %2, i32 noundef %3, i32 %4, i32 %5, ptr noundef nonnull align 8 dereferenceable(33) %6) #5
  br label %12

11:                                               ; preds = %7
  tail call void @_ZN9Assembler3jmpER5Labelb(ptr noundef nonnull align 8 dereferenceable(40) %0, ptr noundef nonnull align 8 dereferenceable(33) %6, i1 noundef zeroext true) #5
  br label %12

12:                                               ; preds = %11, %10
  ret void
}